target datalayout = "e-m:e-p270:32:32-p271:32:32-p272:64:64-i64:64-i128:128-f80:128-n8:16:32:64-S128"
target triple = "x86_64-unknown-linux-gnu"

%"struct.node::AssertionInfo" = type { ptr, ptr, ptr }
%"class.node::MutexBase" = type { %union.pthread_mutex_t }
%union.pthread_mutex_t = type { %struct.__pthread_mutex_s }
%struct.__pthread_mutex_s = type { i32, i32, i32, i32, i32, i16, i16, %struct.__pthread_internal_list }
%struct.__pthread_internal_list = type { ptr, ptr }
%"class.node::ConditionVariableBase" = type { %union.pthread_cond_t }
%union.pthread_cond_t = type { %struct.__pthread_cond_s }
%struct.__pthread_cond_s = type { %union.__atomic_wide_counter, %union.__atomic_wide_counter, [2 x i32], [2 x i32], i32, i32, [2 x i32] }
%union.__atomic_wide_counter = type { i64 }
%"class.node::TaskQueue" = type { %"class.node::MutexBase", %"class.node::ConditionVariableBase", %"class.node::ConditionVariableBase", i32, i8, %"class.std::queue" }
%"class.std::queue" = type { %"class.std::deque" }
%"class.std::deque" = type { %"class.std::_Deque_base" }
%"class.std::_Deque_base" = type { %"struct.std::_Deque_base<std::unique_ptr<v8::Task>, std::allocator<std::unique_ptr<v8::Task>>>::_Deque_impl" }
%"struct.std::_Deque_base<std::unique_ptr<v8::Task>, std::allocator<std::unique_ptr<v8::Task>>>::_Deque_impl" = type { %"struct.std::_Deque_base<std::unique_ptr<v8::Task>, std::allocator<std::unique_ptr<v8::Task>>>::_Deque_impl_data" }
%"struct.std::_Deque_base<std::unique_ptr<v8::Task>, std::allocator<std::unique_ptr<v8::Task>>>::_Deque_impl_data" = type { ptr, i64, %"struct.std::_Deque_iterator", %"struct.std::_Deque_iterator" }
%"struct.std::_Deque_iterator" = type { ptr, ptr, ptr, ptr }
%struct.uv__queue = type { ptr, ptr }
%struct.uv_async_s = type { ptr, ptr, i32, ptr, %struct.uv__queue, %union.anon.13, ptr, i32, ptr, %struct.uv__queue, i32 }
%union.anon.13 = type { [4 x ptr] }
%"class.node::PerIsolatePlatformData" = type { %"class.node::IsolatePlatformDelegate", %"class.v8::TaskRunner", %"class.std::enable_shared_from_this", %"class.std::vector.30", %"class.std::shared_ptr", i32, ptr, ptr, ptr, %"class.node::TaskQueue", %"class.node::TaskQueue.35", %"class.std::vector.43" }
%"class.node::IsolatePlatformDelegate" = type { ptr }
%"class.v8::TaskRunner" = type { ptr }
%"class.std::enable_shared_from_this" = type { %"class.std::weak_ptr" }
%"class.std::weak_ptr" = type { %"class.std::__weak_ptr" }
%"class.std::__weak_ptr" = type { ptr, %"class.std::__weak_count" }
%"class.std::__weak_count" = type { ptr }
%"class.std::vector.30" = type { %"struct.std::_Vector_base.31" }
%"struct.std::_Vector_base.31" = type { %"struct.std::_Vector_base<node::PerIsolatePlatformData::ShutdownCallback, std::allocator<node::PerIsolatePlatformData::ShutdownCallback>>::_Vector_impl" }
%"struct.std::_Vector_base<node::PerIsolatePlatformData::ShutdownCallback, std::allocator<node::PerIsolatePlatformData::ShutdownCallback>>::_Vector_impl" = type { %"struct.std::_Vector_base<node::PerIsolatePlatformData::ShutdownCallback, std::allocator<node::PerIsolatePlatformData::ShutdownCallback>>::_Vector_impl_data" }
%"struct.std::_Vector_base<node::PerIsolatePlatformData::ShutdownCallback, std::allocator<node::PerIsolatePlatformData::ShutdownCallback>>::_Vector_impl_data" = type { ptr, ptr, ptr }
%"class.std::shared_ptr" = type { %"class.std::__shared_ptr" }
%"class.std::__shared_ptr" = type { ptr, %"class.std::__shared_count" }
%"class.std::__shared_count" = type { ptr }
%"class.node::TaskQueue.35" = type { %"class.node::MutexBase", %"class.node::ConditionVariableBase", %"class.node::ConditionVariableBase", i32, i8, %"class.std::queue.36" }
%"class.std::queue.36" = type { %"class.std::deque.37" }
%"class.std::deque.37" = type { %"class.std::_Deque_base.38" }
%"class.std::_Deque_base.38" = type { %"struct.std::_Deque_base<std::unique_ptr<node::DelayedTask>, std::allocator<std::unique_ptr<node::DelayedTask>>>::_Deque_impl" }
%"struct.std::_Deque_base<std::unique_ptr<node::DelayedTask>, std::allocator<std::unique_ptr<node::DelayedTask>>>::_Deque_impl" = type { %"struct.std::_Deque_base<std::unique_ptr<node::DelayedTask>, std::allocator<std::unique_ptr<node::DelayedTask>>>::_Deque_impl_data" }
%"struct.std::_Deque_base<std::unique_ptr<node::DelayedTask>, std::allocator<std::unique_ptr<node::DelayedTask>>>::_Deque_impl_data" = type { ptr, i64, %"struct.std::_Deque_iterator.42", %"struct.std::_Deque_iterator.42" }
%"struct.std::_Deque_iterator.42" = type { ptr, ptr, ptr, ptr }
%"class.std::vector.43" = type { %"struct.std::_Vector_base.44" }
%"struct.std::_Vector_base.44" = type { %"struct.std::_Vector_base<std::unique_ptr<node::DelayedTask, void (*)(node::DelayedTask *)>, std::allocator<std::unique_ptr<node::DelayedTask, void (*)(node::DelayedTask *)>>>::_Vector_impl" }
%"struct.std::_Vector_base<std::unique_ptr<node::DelayedTask, void (*)(node::DelayedTask *)>, std::allocator<std::unique_ptr<node::DelayedTask, void (*)(node::DelayedTask *)>>>::_Vector_impl" = type { %"struct.std::_Vector_base<std::unique_ptr<node::DelayedTask, void (*)(node::DelayedTask *)>, std::allocator<std::unique_ptr<node::DelayedTask, void (*)(node::DelayedTask *)>>>::_Vector_impl_data" }
%"struct.std::_Vector_base<std::unique_ptr<node::DelayedTask, void (*)(node::DelayedTask *)>, std::allocator<std::unique_ptr<node::DelayedTask, void (*)(node::DelayedTask *)>>>::_Vector_impl_data" = type { ptr, ptr, ptr }

@_ZZN4node22PerIsolatePlatformDataC1EPN2v87IsolateEP9uv_loop_sE4args = internal constant %"struct.node::AssertionInfo" { ptr @.str.3, ptr @.str.4, ptr @.str.5 }, align 8
@_ZTVN4node23IsolatePlatformDelegateE = linkonce_odr dso_local unnamed_addr constant { [4 x ptr] } { [4 x ptr] [ptr null, ptr null, ptr @__cxa_pure_virtual, ptr @__cxa_pure_virtual] }, comdat, align 8

; Function Attrs: mustprogress nounwind uwtable
define linkonce_odr dso_local void @_ZNSt15__new_allocatorISt10unique_ptrIN4node11DelayedTaskEPFvPS2_EEEC2Ev(ptr noundef nonnull align 1 dereferenceable(1) %this) unnamed_addr #4 comdat align 2 {
entry:
  %this.addr = alloca ptr, align 8
  store ptr %this, ptr %this.addr, align 8
  ret void
}

; Function Attrs: mustprogress nounwind uwtable
define linkonce_odr dso_local void @_ZNSt15__new_allocatorIN4node22PerIsolatePlatformData16ShutdownCallbackEEC2Ev(ptr noundef nonnull align 1 dereferenceable(1) %this) unnamed_addr #4 comdat align 2 {
entry:
  %this.addr = alloca ptr, align 8
  store ptr %this, ptr %this.addr, align 8
  ret void
}

; Function Attrs: mustprogress nounwind uwtable
define linkonce_odr dso_local void @_ZNSt12_Vector_baseISt10unique_ptrIN4node11DelayedTaskEPFvPS2_EESaIS6_EE17_Vector_impl_dataC2Ev(ptr noundef nonnull align 8 dereferenceable(24) %this) unnamed_addr #4 comdat align 2 {
entry:
  %this.addr = alloca ptr, align 8
  store ptr %this, ptr %this.addr, align 8
  %this1 = load ptr, ptr %this.addr, align 8
  %_M_start = getelementptr inbounds %"struct.std::_Vector_base<std::unique_ptr<node::DelayedTask, void (*)(node::DelayedTask *)>, std::allocator<std::unique_ptr<node::DelayedTask, void (*)(node::DelayedTask *)>>>::_Vector_impl_data", ptr %this1, i32 0, i32 0
  store ptr null, ptr %_M_start, align 8
  %_M_finish = getelementptr inbounds %"struct.std::_Vector_base<std::unique_ptr<node::DelayedTask, void (*)(node::DelayedTask *)>, std::allocator<std::unique_ptr<node::DelayedTask, void (*)(node::DelayedTask *)>>>::_Vector_impl_data", ptr %this1, i32 0, i32 1
  store ptr null, ptr %_M_finish, align 8
  %_M_end_of_storage = getelementptr inbounds %"struct.std::_Vector_base<std::unique_ptr<node::DelayedTask, void (*)(node::DelayedTask *)>, std::allocator<std::unique_ptr<node::DelayedTask, void (*)(node::DelayedTask *)>>>::_Vector_impl_data", ptr %this1, i32 0, i32 2
  store ptr null, ptr %_M_end_of_storage, align 8
  ret void
}

; Function Attrs: mustprogress nounwind uwtable
define linkonce_odr dso_local void @_ZNSaISt10unique_ptrIN4node11DelayedTaskEPFvPS1_EEEC2Ev(ptr noundef nonnull align 1 dereferenceable(1) %this) unnamed_addr #4 comdat align 2 {
entry:
  %this.addr = alloca ptr, align 8
  store ptr %this, ptr %this.addr, align 8
  %this1 = load ptr, ptr %this.addr, align 8
  call void @_ZNSt15__new_allocatorISt10unique_ptrIN4node11DelayedTaskEPFvPS2_EEEC2Ev(ptr noundef nonnull align 1 dereferenceable(1) %this1) #3
  ret void
}

; Function Attrs: mustprogress nounwind uwtable
define linkonce_odr dso_local void @_ZNSt12_Vector_baseIN4node22PerIsolatePlatformData16ShutdownCallbackESaIS2_EE17_Vector_impl_dataC2Ev(ptr noundef nonnull align 8 dereferenceable(24) %this) unnamed_addr #4 comdat align 2 {
entry:
  %this.addr = alloca ptr, align 8
  store ptr %this, ptr %this.addr, align 8
  %this1 = load ptr, ptr %this.addr, align 8
  %_M_start = getelementptr inbounds %"struct.std::_Vector_base<node::PerIsolatePlatformData::ShutdownCallback, std::allocator<node::PerIsolatePlatformData::ShutdownCallback>>::_Vector_impl_data", ptr %this1, i32 0, i32 0
  store ptr null, ptr %_M_start, align 8
  %_M_finish = getelementptr inbounds %"struct.std::_Vector_base<node::PerIsolatePlatformData::ShutdownCallback, std::allocator<node::PerIsolatePlatformData::ShutdownCallback>>::_Vector_impl_data", ptr %this1, i32 0, i32 1
  store ptr null, ptr %_M_finish, align 8
  %_M_end_of_storage = getelementptr inbounds %"struct.std::_Vector_base<node::PerIsolatePlatformData::ShutdownCallback, std::allocator<node::PerIsolatePlatformData::ShutdownCallback>>::_Vector_impl_data", ptr %this1, i32 0, i32 2
  store ptr null, ptr %_M_end_of_storage, align 8
  ret void
}

; Function Attrs: mustprogress nounwind uwtable
define linkonce_odr dso_local void @_ZNSaIN4node22PerIsolatePlatformData16ShutdownCallbackEEC2Ev(ptr noundef nonnull align 1 dereferenceable(1) %this) unnamed_addr #4 comdat align 2 {
entry:
  %this.addr = alloca ptr, align 8
  store ptr %this, ptr %this.addr, align 8
  %this1 = load ptr, ptr %this.addr, align 8
  call void @_ZNSt15__new_allocatorIN4node22PerIsolatePlatformData16ShutdownCallbackEEC2Ev(ptr noundef nonnull align 1 dereferenceable(1) %this1) #3
  ret void
}

; Function Attrs: mustprogress nounwind uwtable
define linkonce_odr dso_local void @_ZNSt12__weak_countILN9__gnu_cxx12_Lock_policyE2EEC2Ev(ptr noundef nonnull align 8 dereferenceable(8) %this) unnamed_addr #4 comdat align 2 {
entry:
  %this.addr = alloca ptr, align 8
  store ptr %this, ptr %this.addr, align 8
  %this1 = load ptr, ptr %this.addr, align 8
  %_M_pi = getelementptr inbounds %"class.std::__weak_count", ptr %this1, i32 0, i32 0
  store ptr null, ptr %_M_pi, align 8
  ret void
}

; Function Attrs: mustprogress nounwind uwtable
define linkonce_odr dso_local void @_ZNSt12_Vector_baseISt10unique_ptrIN4node11DelayedTaskEPFvPS2_EESaIS6_EE12_Vector_implC2Ev(ptr noundef nonnull align 8 dereferenceable(24) %this) unnamed_addr #4 comdat align 2 {
entry:
  %this.addr = alloca ptr, align 8
  store ptr %this, ptr %this.addr, align 8
  %this1 = load ptr, ptr %this.addr, align 8
  call void @_ZNSaISt10unique_ptrIN4node11DelayedTaskEPFvPS1_EEEC2Ev(ptr noundef nonnull align 1 dereferenceable(1) %this1) #3
  call void @_ZNSt12_Vector_baseISt10unique_ptrIN4node11DelayedTaskEPFvPS2_EESaIS6_EE17_Vector_impl_dataC2Ev(ptr noundef nonnull align 8 dereferenceable(24) %this1) #3
  ret void
}

; Function Attrs: mustprogress nounwind uwtable
define linkonce_odr dso_local void @_ZNSt14__shared_countILN9__gnu_cxx12_Lock_policyE2EEC2Ev(ptr noundef nonnull align 8 dereferenceable(8) %this) unnamed_addr #4 comdat align 2 {
entry:
  %this.addr = alloca ptr, align 8
  store ptr %this, ptr %this.addr, align 8
  %this1 = load ptr, ptr %this.addr, align 8
  %_M_pi = getelementptr inbounds %"class.std::__shared_count", ptr %this1, i32 0, i32 0
  store ptr null, ptr %_M_pi, align 8
  ret void
}

; Function Attrs: mustprogress nounwind uwtable
define linkonce_odr dso_local void @_ZNSt12_Vector_baseIN4node22PerIsolatePlatformData16ShutdownCallbackESaIS2_EE12_Vector_implC2Ev(ptr noundef nonnull align 8 dereferenceable(24) %this) unnamed_addr #4 comdat align 2 {
entry:
  %this.addr = alloca ptr, align 8
  store ptr %this, ptr %this.addr, align 8
  %this1 = load ptr, ptr %this.addr, align 8
  call void @_ZNSaIN4node22PerIsolatePlatformData16ShutdownCallbackEEC2Ev(ptr noundef nonnull align 1 dereferenceable(1) %this1) #3
  call void @_ZNSt12_Vector_baseIN4node22PerIsolatePlatformData16ShutdownCallbackESaIS2_EE17_Vector_impl_dataC2Ev(ptr noundef nonnull align 8 dereferenceable(24) %this1) #3
  ret void
}

; Function Attrs: mustprogress nounwind uwtable
define linkonce_odr dso_local void @_ZNSt10__weak_ptrIN4node22PerIsolatePlatformDataELN9__gnu_cxx12_Lock_policyE2EEC2Ev(ptr noundef nonnull align 8 dereferenceable(16) %this) unnamed_addr #4 comdat align 2 {
entry:
  %this.addr = alloca ptr, align 8
  store ptr %this, ptr %this.addr, align 8
  %this1 = load ptr, ptr %this.addr, align 8
  %_M_ptr = getelementptr inbounds %"class.std::__weak_ptr", ptr %this1, i32 0, i32 0
  store ptr null, ptr %_M_ptr, align 8
  %_M_refcount = getelementptr inbounds %"class.std::__weak_ptr", ptr %this1, i32 0, i32 1
  call void @_ZNSt12__weak_countILN9__gnu_cxx12_Lock_policyE2EEC2Ev(ptr noundef nonnull align 8 dereferenceable(8) %_M_refcount) #3
  ret void
}

; Function Attrs: mustprogress nounwind uwtable
define linkonce_odr dso_local void @_ZNSt12_Vector_baseISt10unique_ptrIN4node11DelayedTaskEPFvPS2_EESaIS6_EEC2Ev(ptr noundef nonnull align 8 dereferenceable(24) %this) unnamed_addr #4 comdat align 2 {
entry:
  %this.addr = alloca ptr, align 8
  store ptr %this, ptr %this.addr, align 8
  %this1 = load ptr, ptr %this.addr, align 8
  %_M_impl = getelementptr inbounds %"struct.std::_Vector_base.44", ptr %this1, i32 0, i32 0
  call void @_ZNSt12_Vector_baseISt10unique_ptrIN4node11DelayedTaskEPFvPS2_EESaIS6_EE12_Vector_implC2Ev(ptr noundef nonnull align 8 dereferenceable(24) %_M_impl) #3
  ret void
}

; Function Attrs: mustprogress nounwind uwtable
define linkonce_odr dso_local void @_ZNSt12__shared_ptrIN4node22PerIsolatePlatformDataELN9__gnu_cxx12_Lock_policyE2EEC2Ev(ptr noundef nonnull align 8 dereferenceable(16) %this) unnamed_addr #4 comdat align 2 {
entry:
  %this.addr = alloca ptr, align 8
  store ptr %this, ptr %this.addr, align 8
  %this1 = load ptr, ptr %this.addr, align 8
  %_M_ptr = getelementptr inbounds %"class.std::__shared_ptr", ptr %this1, i32 0, i32 0
  store ptr null, ptr %_M_ptr, align 8
  %_M_refcount = getelementptr inbounds %"class.std::__shared_ptr", ptr %this1, i32 0, i32 1
  call void @_ZNSt14__shared_countILN9__gnu_cxx12_Lock_policyE2EEC2Ev(ptr noundef nonnull align 8 dereferenceable(8) %_M_refcount) #3
  ret void
}

; Function Attrs: mustprogress nounwind uwtable
define linkonce_odr dso_local void @_ZNSt12_Vector_baseIN4node22PerIsolatePlatformData16ShutdownCallbackESaIS2_EEC2Ev(ptr noundef nonnull align 8 dereferenceable(24) %this) unnamed_addr #4 comdat align 2 {
entry:
  %this.addr = alloca ptr, align 8
  store ptr %this, ptr %this.addr, align 8
  %this1 = load ptr, ptr %this.addr, align 8
  %_M_impl = getelementptr inbounds %"struct.std::_Vector_base.31", ptr %this1, i32 0, i32 0
  call void @_ZNSt12_Vector_baseIN4node22PerIsolatePlatformData16ShutdownCallbackESaIS2_EE12_Vector_implC2Ev(ptr noundef nonnull align 8 dereferenceable(24) %_M_impl) #3
  ret void
}

; Function Attrs: mustprogress nounwind uwtable
define linkonce_odr dso_local void @_ZNSt8weak_ptrIN4node22PerIsolatePlatformDataEEC2Ev(ptr noundef nonnull align 8 dereferenceable(16) %this) unnamed_addr #4 comdat align 2 {
entry:
  %this.addr = alloca ptr, align 8
  store ptr %this, ptr %this.addr, align 8
  %this1 = load ptr, ptr %this.addr, align 8
  call void @_ZNSt10__weak_ptrIN4node22PerIsolatePlatformDataELN9__gnu_cxx12_Lock_policyE2EEC2Ev(ptr noundef nonnull align 8 dereferenceable(16) %this1) #3
  ret void
}

; Function Attrs: mustprogress nounwind uwtable
define linkonce_odr dso_local void @_ZNSt6vectorISt10unique_ptrIN4node11DelayedTaskEPFvPS2_EESaIS6_EEC2Ev(ptr noundef nonnull align 8 dereferenceable(24) %this) unnamed_addr #4 comdat align 2 {
entry:
  %this.addr = alloca ptr, align 8
  store ptr %this, ptr %this.addr, align 8
  %this1 = load ptr, ptr %this.addr, align 8
  call void @_ZNSt12_Vector_baseISt10unique_ptrIN4node11DelayedTaskEPFvPS2_EESaIS6_EEC2Ev(ptr noundef nonnull align 8 dereferenceable(24) %this1) #3
  ret void
}

; Function Attrs: mustprogress nounwind uwtable
define linkonce_odr dso_local void @_ZNSt10shared_ptrIN4node22PerIsolatePlatformDataEEC2Ev(ptr noundef nonnull align 8 dereferenceable(16) %this) unnamed_addr #4 comdat align 2 {
entry:
  %this.addr = alloca ptr, align 8
  store ptr %this, ptr %this.addr, align 8
  %this1 = load ptr, ptr %this.addr, align 8
  call void @_ZNSt12__shared_ptrIN4node22PerIsolatePlatformDataELN9__gnu_cxx12_Lock_policyE2EEC2Ev(ptr noundef nonnull align 8 dereferenceable(16) %this1) #3
  ret void
}

; Function Attrs: mustprogress nounwind uwtable
define linkonce_odr dso_local void @_ZNSt6vectorIN4node22PerIsolatePlatformData16ShutdownCallbackESaIS2_EEC2Ev(ptr noundef nonnull align 8 dereferenceable(24) %this) unnamed_addr #4 comdat align 2 {
entry:
  %this.addr = alloca ptr, align 8
  store ptr %this, ptr %this.addr, align 8
  %this1 = load ptr, ptr %this.addr, align 8
  call void @_ZNSt12_Vector_baseIN4node22PerIsolatePlatformData16ShutdownCallbackESaIS2_EEC2Ev(ptr noundef nonnull align 8 dereferenceable(24) %this1) #3
  ret void
}

; Function Attrs: mustprogress nounwind uwtable
define linkonce_odr dso_local void @_ZNSt23enable_shared_from_thisIN4node22PerIsolatePlatformDataEEC2Ev(ptr noundef nonnull align 8 dereferenceable(16) %this) unnamed_addr #4 comdat align 2 {
entry:
  %this.addr = alloca ptr, align 8
  store ptr %this, ptr %this.addr, align 8
  %this1 = load ptr, ptr %this.addr, align 8
  %_M_weak_this = getelementptr inbounds %"class.std::enable_shared_from_this", ptr %this1, i32 0, i32 0
  call void @_ZNSt8weak_ptrIN4node22PerIsolatePlatformDataEEC2Ev(ptr noundef nonnull align 8 dereferenceable(16) %_M_weak_this) #3
  ret void
}

; Function Attrs: mustprogress nounwind uwtable
define linkonce_odr dso_local void @_ZN2v810TaskRunnerC2Ev(ptr noundef nonnull align 8 dereferenceable(8) %this) unnamed_addr #4 comdat align 2 {
entry:
  %this.addr = alloca ptr, align 8
  store ptr %this, ptr %this.addr, align 8
  %this1 = load ptr, ptr %this.addr, align 8
  store ptr getelementptr inbounds ({ [12 x ptr] }, ptr @_ZTVN2v810TaskRunnerE, i32 0, i32 0, i32 2), ptr %this1, align 8
  ret void
}

; Function Attrs: mustprogress nounwind uwtable
define linkonce_odr dso_local void @_ZN4node23IsolatePlatformDelegateC2Ev(ptr noundef nonnull align 8 dereferenceable(8) %this) unnamed_addr #4 comdat align 2 {
entry:
  %this.addr = alloca ptr, align 8
  store ptr %this, ptr %this.addr, align 8
  %this1 = load ptr, ptr %this.addr, align 8
  store ptr getelementptr inbounds ({ [4 x ptr] }, ptr @_ZTVN4node23IsolatePlatformDelegateE, i32 0, i32 0, i32 2), ptr %this1, align 8
  ret void
}

; Function Attrs: mustprogress nounwind uwtable
define dso_local void @_ZN4node22PerIsolatePlatformDataC2EPN2v87IsolateEP9uv_loop_s(ptr noundef nonnull align 8 dereferenceable(576) %this, ptr noundef %isolate, ptr noundef %loop) unnamed_addr #4 align 2 {
entry:
  %this.addr = alloca ptr, align 8
  %isolate.addr = alloca ptr, align 8
  %loop.addr = alloca ptr, align 8
  store ptr %this, ptr %this.addr, align 8
  store ptr %isolate, ptr %isolate.addr, align 8
  store ptr %loop, ptr %loop.addr, align 8
  %this1 = load ptr, ptr %this.addr, align 8
  call void @_ZN4node23IsolatePlatformDelegateC2Ev(ptr noundef nonnull align 8 dereferenceable(8) %this1) #3
  %0 = getelementptr inbounds i8, ptr %this1, i64 8
  call void @_ZN2v810TaskRunnerC2Ev(ptr noundef nonnull align 8 dereferenceable(8) %0) #3
  %1 = getelementptr inbounds i8, ptr %this1, i64 16
  call void @_ZNSt23enable_shared_from_thisIN4node22PerIsolatePlatformDataEEC2Ev(ptr noundef nonnull align 8 dereferenceable(16) %1) #3
  store ptr getelementptr inbounds ({ [13 x ptr], [12 x ptr] }, ptr @_ZTVN4node22PerIsolatePlatformDataE, i32 0, i32 0, i32 2), ptr %this1, align 8
  %add.ptr = getelementptr inbounds i8, ptr %this1, i64 8
  store ptr getelementptr inbounds ({ [13 x ptr], [12 x ptr] }, ptr @_ZTVN4node22PerIsolatePlatformDataE, i32 0, i32 1, i32 2), ptr %add.ptr, align 8
  %shutdown_callbacks_ = getelementptr inbounds %"class.node::PerIsolatePlatformData", ptr %this1, i32 0, i32 3
  call void @_ZNSt6vectorIN4node22PerIsolatePlatformData16ShutdownCallbackESaIS2_EEC2Ev(ptr noundef nonnull align 8 dereferenceable(24) %shutdown_callbacks_) #3
  %self_reference_ = getelementptr inbounds %"class.node::PerIsolatePlatformData", ptr %this1, i32 0, i32 4
  call void @_ZNSt10shared_ptrIN4node22PerIsolatePlatformDataEEC2Ev(ptr noundef nonnull align 8 dereferenceable(16) %self_reference_) #3
  %uv_handle_count_ = getelementptr inbounds %"class.node::PerIsolatePlatformData", ptr %this1, i32 0, i32 5
  store i32 1, ptr %uv_handle_count_, align 8
  %isolate_ = getelementptr inbounds %"class.node::PerIsolatePlatformData", ptr %this1, i32 0, i32 6
  %2 = load ptr, ptr %isolate.addr, align 8
  store ptr %2, ptr %isolate_, align 8
  %loop_ = getelementptr inbounds %"class.node::PerIsolatePlatformData", ptr %this1, i32 0, i32 7
  %3 = load ptr, ptr %loop.addr, align 8
  store ptr %3, ptr %loop_, align 8
  %flush_tasks_ = getelementptr inbounds %"class.node::PerIsolatePlatformData", ptr %this1, i32 0, i32 8
  store ptr null, ptr %flush_tasks_, align 8
  %foreground_tasks_ = getelementptr inbounds %"class.node::PerIsolatePlatformData", ptr %this1, i32 0, i32 9
  call void @_ZN4node9TaskQueueIN2v84TaskEEC2Ev(ptr noundef nonnull align 8 dereferenceable(224) %foreground_tasks_)
  %foreground_delayed_tasks_ = getelementptr inbounds %"class.node::PerIsolatePlatformData", ptr %this1, i32 0, i32 10
  call void @_ZN4node9TaskQueueINS_11DelayedTaskEEC2Ev(ptr noundef nonnull align 8 dereferenceable(224) %foreground_delayed_tasks_)
  %scheduled_delayed_tasks_ = getelementptr inbounds %"class.node::PerIsolatePlatformData", ptr %this1, i32 0, i32 11
  call void @_ZNSt6vectorISt10unique_ptrIN4node11DelayedTaskEPFvPS2_EESaIS6_EEC2Ev(ptr noundef nonnull align 8 dereferenceable(24) %scheduled_delayed_tasks_) #3
  %call = call noalias noundef nonnull ptr @_Znwm(i64 noundef 128) #14
  call void @llvm.memset.p0.i64(ptr align 16 %call, i8 0, i64 128, i1 false)
  %flush_tasks_2 = getelementptr inbounds %"class.node::PerIsolatePlatformData", ptr %this1, i32 0, i32 8
  store ptr %call, ptr %flush_tasks_2, align 8
  br label %do.body

do.body:                                          ; preds = %entry
  %4 = load ptr, ptr %loop.addr, align 8
  %flush_tasks_3 = getelementptr inbounds %"class.node::PerIsolatePlatformData", ptr %this1, i32 0, i32 8
  %5 = load ptr, ptr %flush_tasks_3, align 8
  %call4 = call i32 @uv_async_init(ptr noundef %4, ptr noundef %5, ptr noundef @_ZN4node22PerIsolatePlatformData10FlushTasksEP10uv_async_s)
  %cmp = icmp eq i32 0, %call4
  %lnot = xor i1 %cmp, true
  %lnot5 = xor i1 %lnot, true
  %lnot6 = xor i1 %lnot5, true
  br i1 %lnot6, label %if.then, label %if.end

if.then:                                          ; preds = %do.body
  br label %do.body7

do.body7:                                         ; preds = %if.then
  call void @_ZN4node6AssertERKNS_13AssertionInfoE(ptr noundef nonnull align 8 dereferenceable(24) @_ZZN4node22PerIsolatePlatformDataC1EPN2v87IsolateEP9uv_loop_sE4args)
  call void @abort() #15
  unreachable

do.end:                                           ; No predecessors!
  br label %if.end

if.end:                                           ; preds = %do.end, %do.body
  br label %do.end8

do.end8:                                          ; preds = %if.end
  %flush_tasks_9 = getelementptr inbounds %"class.node::PerIsolatePlatformData", ptr %this1, i32 0, i32 8
  %6 = load ptr, ptr %flush_tasks_9, align 8
  %data = getelementptr inbounds %struct.uv_async_s, ptr %6, i32 0, i32 0
  store ptr %this1, ptr %data, align 8
  %flush_tasks_10 = getelementptr inbounds %"class.node::PerIsolatePlatformData", ptr %this1, i32 0, i32 8
  %7 = load ptr, ptr %flush_tasks_10, align 8
  call void @uv_unref(ptr noundef %7)
  ret void
}