; Function Attrs: mustprogress nounwind uwtable
define dso_local void @_ZN4node22PerIsolatePlatformDataC2EPN2v87IsolateEP9uv_loop_s(ptr noundef nonnull align 8 dereferenceable(576) %this, ptr noundef %isolate, ptr noundef %loop) unnamed_addr #3 align 2 {
entry:
  %0 = getelementptr inbounds i8, ptr %this, i64 8
  %1 = getelementptr inbounds i8, ptr %this, i64 16
  tail call void @llvm.memset.p0.i64(ptr noundef nonnull align 8 dereferenceable(16) %1, i8 0, i64 16, i1 false)
  store ptr getelementptr inbounds ({ [13 x ptr], [12 x ptr] }, ptr @_ZTVN4node22PerIsolatePlatformDataE, i64 0, i32 0, i64 2), ptr %this, align 8
  store ptr getelementptr inbounds ({ [13 x ptr], [12 x ptr] }, ptr @_ZTVN4node22PerIsolatePlatformDataE, i64 0, i32 1, i64 2), ptr %0, align 8
  %shutdown_callbacks_ = getelementptr inbounds i8, ptr %this, i64 32
  %uv_handle_count_ = getelementptr inbounds i8, ptr %this, i64 72
  tail call void @llvm.memset.p0.i64(ptr noundef nonnull align 8 dereferenceable(40) %shutdown_callbacks_, i8 0, i64 40, i1 false)
  store i32 1, ptr %uv_handle_count_, align 8
  %isolate_ = getelementptr inbounds i8, ptr %this, i64 80
  store ptr %isolate, ptr %isolate_, align 8
  %loop_ = getelementptr inbounds i8, ptr %this, i64 88
  store ptr %loop, ptr %loop_, align 8
  %flush_tasks_ = getelementptr inbounds i8, ptr %this, i64 96
  store ptr null, ptr %flush_tasks_, align 8
  %foreground_tasks_ = getelementptr inbounds i8, ptr %this, i64 104
  tail call void @_ZN4node9TaskQueueIN2v84TaskEEC2Ev(ptr noundef nonnull align 8 dereferenceable(224) %foreground_tasks_)
  %foreground_delayed_tasks_ = getelementptr inbounds i8, ptr %this, i64 328
  tail call void @_ZN4node9TaskQueueINS_11DelayedTaskEEC2Ev(ptr noundef nonnull align 8 dereferenceable(224) %foreground_delayed_tasks_)
  %scheduled_delayed_tasks_ = getelementptr inbounds i8, ptr %this, i64 552
  tail call void @llvm.memset.p0.i64(ptr noundef nonnull align 8 dereferenceable(24) %scheduled_delayed_tasks_, i8 0, i64 24, i1 false)
  %call = tail call noalias noundef nonnull dereferenceable(128) ptr @_Znwm(i64 noundef 128) #25
  tail call void @llvm.memset.p0.i64(ptr noundef nonnull align 16 dereferenceable(128) %call, i8 0, i64 128, i1 false)
  store ptr %call, ptr %flush_tasks_, align 8
  %call4 = tail call i32 @uv_async_init(ptr noundef %loop, ptr noundef nonnull %call, ptr noundef nonnull @_ZN4node22PerIsolatePlatformData10FlushTasksEP10uv_async_s) #23
  %cmp.not = icmp eq i32 %call4, 0
  br i1 %cmp.not, label %do.end8, label %do.body7

do.body7:                                         ; preds = %entry
  tail call void @_ZN4node6AssertERKNS_13AssertionInfoE(ptr noundef nonnull align 8 dereferenceable(24) @_ZZN4node22PerIsolatePlatformDataC1EPN2v87IsolateEP9uv_loop_sE4args) #23
  tail call void @abort() #24
  unreachable

do.end8:                                          ; preds = %entry
  %2 = load ptr, ptr %flush_tasks_, align 8
  store ptr %this, ptr %2, align 8
  %3 = load ptr, ptr %flush_tasks_, align 8
  tail call void @uv_unref(ptr noundef %3) #23
  ret void
}